; Function Attrs: nounwind uwtable
define dso_local i32 @PyModule_AddObject(ptr noundef %0, ptr noundef %1, ptr noundef %2) local_unnamed_addr #0 {
  %4 = tail call i32 @PyModule_AddObjectRef(ptr noundef %0, ptr noundef %1, ptr noundef %2)
  %5 = icmp eq i32 %4, 0
  br i1 %5, label %6, label %Py_DECREF.exit

6:                                                ; preds = %3
  %7 = load i32, ptr %2, align 8, !tbaa !29
  %.not.i = icmp sgt i32 %7, -1
  br i1 %.not.i, label %8, label %Py_DECREF.exit

8:                                                ; preds = %6
  %9 = add nsw i32 %7, -1
  store i32 %9, ptr %2, align 8, !tbaa !29
  %10 = icmp eq i32 %9, 0
  br i1 %10, label %11, label %Py_DECREF.exit

11:                                               ; preds = %8
  tail call void @_Py_Dealloc(ptr noundef nonnull %2) #7
  br label %Py_DECREF.exit

Py_DECREF.exit:                                   ; preds = %11, %8, %6, %3
  ret i32 %4
}